; Function Attrs: mustprogress nofree norecurse nosync nounwind willreturn memory(argmem: readwrite) uwtable
define void @png_set_invalid(ptr noalias noundef readnone %0, ptr noalias noundef %1, i32 noundef %2) local_unnamed_addr #0 {
  %4 = icmp ne ptr %0, null
  %5 = icmp ne ptr %1, null
  %or.cond = and i1 %4, %5
  br i1 %or.cond, label %6, label %11

6:                                                ; preds = %3
  %7 = xor i32 %2, -1
  %8 = getelementptr inbounds i8, ptr %1, i64 8
  %9 = load i32, ptr %8, align 8
  %10 = and i32 %9, %7
  store i32 %10, ptr %8, align 8
  br label %11

11:                                               ; preds = %6, %3
  ret void
}